target datalayout = "e-m:e-p270:32:32-p271:32:32-p272:64:64-i64:64-i128:128-f80:128-n8:16:32:64-S128"
target triple = "x86_64-pc-linux-gnu"

%struct.matrix_st = type { ptr, i64, i64 }
%struct.poly_st = type { [256 x i32] }

; Function Attrs: inlinehint nounwind uwtable
define internal i32 @coeff_from_three_bytes(ptr noundef %0, ptr noundef %1) #3 {
  %3 = alloca ptr, align 8
  %4 = alloca ptr, align 8
  store ptr %0, ptr %3, align 8, !tbaa !10
  store ptr %1, ptr %4, align 8, !tbaa !37
  %5 = load ptr, ptr %3, align 8, !tbaa !10
  %6 = getelementptr inbounds i8, ptr %5, i64 0
  %7 = load i8, ptr %6, align 1, !tbaa !24
  %8 = zext i8 %7 to i32
  %9 = load ptr, ptr %3, align 8, !tbaa !10
  %10 = getelementptr inbounds i8, ptr %9, i64 1
  %11 = load i8, ptr %10, align 1, !tbaa !24
  %12 = zext i8 %11 to i32
  %13 = shl i32 %12, 8
  %14 = or i32 %8, %13
  %15 = load ptr, ptr %3, align 8, !tbaa !10
  %16 = getelementptr inbounds i8, ptr %15, i64 2
  %17 = load i8, ptr %16, align 1, !tbaa !24
  %18 = zext i8 %17 to i32
  %19 = and i32 %18, 127
  %20 = shl i32 %19, 16
  %21 = or i32 %14, %20
  %22 = load ptr, ptr %4, align 8, !tbaa !37
  store i32 %21, ptr %22, align 4, !tbaa !14
  %23 = load ptr, ptr %4, align 8, !tbaa !37
  %24 = load i32, ptr %23, align 4, !tbaa !14
  %25 = icmp ult i32 %24, 8380417
  %26 = zext i1 %25 to i32
  ret i32 %26
}

; Function Attrs: inlinehint nounwind uwtable
define internal i32 @shake_xof(ptr noundef %0, ptr noundef %1, ptr noundef %2, i64 noundef %3, ptr noundef %4, i64 noundef %5) #3 {
  %7 = alloca ptr, align 8
  %8 = alloca ptr, align 8
  %9 = alloca ptr, align 8
  %10 = alloca i64, align 8
  %11 = alloca ptr, align 8
  %12 = alloca i64, align 8
  store ptr %0, ptr %7, align 8, !tbaa !3
  store ptr %1, ptr %8, align 8, !tbaa !8
  store ptr %2, ptr %9, align 8, !tbaa !10
  store i64 %3, ptr %10, align 8, !tbaa !21
  store ptr %4, ptr %11, align 8, !tbaa !10
  store i64 %5, ptr %12, align 8, !tbaa !21
  %13 = load ptr, ptr %7, align 8, !tbaa !3
  %14 = load ptr, ptr %8, align 8, !tbaa !8
  %15 = call i32 @EVP_DigestInit_ex2(ptr noundef %13, ptr noundef %14, ptr noundef null)
  %16 = icmp eq i32 %15, 1
  br i1 %16, label %17, label %29

17:                                               ; preds = %6
  %18 = load ptr, ptr %7, align 8, !tbaa !3
  %19 = load ptr, ptr %9, align 8, !tbaa !10
  %20 = load i64, ptr %10, align 8, !tbaa !21
  %21 = call i32 @EVP_DigestUpdate(ptr noundef %18, ptr noundef %19, i64 noundef %20)
  %22 = icmp eq i32 %21, 1
  br i1 %22, label %23, label %29

23:                                               ; preds = %17
  %24 = load ptr, ptr %7, align 8, !tbaa !3
  %25 = load ptr, ptr %11, align 8, !tbaa !10
  %26 = load i64, ptr %12, align 8, !tbaa !21
  %27 = call i32 @EVP_DigestSqueeze(ptr noundef %24, ptr noundef %25, i64 noundef %26)
  %28 = icmp eq i32 %27, 1
  br label %29

29:                                               ; preds = %23, %17, %6
  %30 = phi i1 [ false, %17 ], [ false, %6 ], [ %28, %23 ]
  %31 = zext i1 %30 to i32
  ret i32 %31
}

; Function Attrs: nounwind uwtable
define internal i32 @rej_ntt_poly(ptr noundef %0, ptr noundef %1, ptr noundef %2, i64 noundef %3, ptr noundef %4) #0 {
  %6 = alloca i32, align 4
  %7 = alloca ptr, align 8
  %8 = alloca ptr, align 8
  %9 = alloca ptr, align 8
  %10 = alloca i64, align 8
  %11 = alloca ptr, align 8
  %12 = alloca i32, align 4
  %13 = alloca [168 x i8], align 16
  %14 = alloca ptr, align 8
  %15 = alloca ptr, align 8
  %16 = alloca i32, align 4
  store ptr %0, ptr %7, align 8, !tbaa !3
  store ptr %1, ptr %8, align 8, !tbaa !8
  store ptr %2, ptr %9, align 8, !tbaa !10
  store i64 %3, ptr %10, align 8, !tbaa !21
  store ptr %4, ptr %11, align 8, !tbaa !20
  call void @llvm.lifetime.start.p0(i64 4, ptr %12) #6
  store i32 0, ptr %12, align 4, !tbaa !14
  call void @llvm.lifetime.start.p0(i64 168, ptr %13) #6
  call void @llvm.lifetime.start.p0(i64 8, ptr %14) #6
  call void @llvm.lifetime.start.p0(i64 8, ptr %15) #6
  %17 = getelementptr inbounds [168 x i8], ptr %13, i64 0, i64 0
  %18 = getelementptr inbounds nuw i8, ptr %17, i64 168
  store ptr %18, ptr %15, align 8, !tbaa !10
  %19 = load ptr, ptr %7, align 8, !tbaa !3
  %20 = load ptr, ptr %8, align 8, !tbaa !8
  %21 = load ptr, ptr %9, align 8, !tbaa !10
  %22 = load i64, ptr %10, align 8, !tbaa !21
  %23 = getelementptr inbounds [168 x i8], ptr %13, i64 0, i64 0
  %24 = call i32 @shake_xof(ptr noundef %19, ptr noundef %20, ptr noundef %21, i64 noundef %22, ptr noundef %23, i64 noundef 168)
  %25 = icmp ne i32 %24, 0
  br i1 %25, label %27, label %26

26:                                               ; preds = %5
  store i32 0, ptr %6, align 4
  store i32 1, ptr %16, align 4
  br label %61

27:                                               ; preds = %5
  br label %28

28:                                               ; preds = %60, %27
  br label %29

29:                                               ; preds = %28
  %30 = getelementptr inbounds [168 x i8], ptr %13, i64 0, i64 0
  store ptr %30, ptr %14, align 8, !tbaa !10
  br label %31

31:                                               ; preds = %51, %29
  %32 = load ptr, ptr %14, align 8, !tbaa !10
  %33 = load ptr, ptr %15, align 8, !tbaa !10
  %34 = icmp ult ptr %32, %33
  br i1 %34, label %35, label %54

35:                                               ; preds = %31
  %36 = load ptr, ptr %14, align 8, !tbaa !10
  %37 = load ptr, ptr %11, align 8, !tbaa !20
  %38 = getelementptr inbounds nuw %struct.poly_st, ptr %37, i32 0, i32 0
  %39 = load i32, ptr %12, align 4, !tbaa !14
  %40 = sext i32 %39 to i64
  %41 = getelementptr inbounds [256 x i32], ptr %38, i64 0, i64 %40
  %42 = call i32 @coeff_from_three_bytes(ptr noundef %36, ptr noundef %41)
  %43 = icmp ne i32 %42, 0
  br i1 %43, label %44, label %50

44:                                               ; preds = %35
  %45 = load i32, ptr %12, align 4, !tbaa !14
  %46 = add nsw i32 %45, 1
  store i32 %46, ptr %12, align 4, !tbaa !14
  %47 = icmp sge i32 %46, 256
  br i1 %47, label %48, label %49

48:                                               ; preds = %44
  store i32 1, ptr %6, align 4
  store i32 1, ptr %16, align 4
  br label %61

49:                                               ; preds = %44
  br label %50

50:                                               ; preds = %49, %35
  br label %51

51:                                               ; preds = %50
  %52 = load ptr, ptr %14, align 8, !tbaa !10
  %53 = getelementptr inbounds i8, ptr %52, i64 3
  store ptr %53, ptr %14, align 8, !tbaa !10
  br label %31, !llvm.loop !28

54:                                               ; preds = %31
  %55 = load ptr, ptr %7, align 8, !tbaa !3
  %56 = getelementptr inbounds [168 x i8], ptr %13, i64 0, i64 0
  %57 = call i32 @EVP_DigestSqueeze(ptr noundef %55, ptr noundef %56, i64 noundef 168)
  %58 = icmp ne i32 %57, 0
  br i1 %58, label %60, label %59

59:                                               ; preds = %54
  store i32 0, ptr %6, align 4
  store i32 1, ptr %16, align 4
  br label %61

60:                                               ; preds = %54
  br label %28

61:                                               ; preds = %59, %48, %26
  call void @llvm.lifetime.end.p0(i64 8, ptr %15) #6
  call void @llvm.lifetime.end.p0(i64 8, ptr %14) #6
  call void @llvm.lifetime.end.p0(i64 168, ptr %13) #6
  call void @llvm.lifetime.end.p0(i64 4, ptr %12) #6
  %62 = load i32, ptr %6, align 4
  ret i32 %62
}

; Function Attrs: nounwind uwtable
define i32 @ossl_ml_dsa_matrix_expand_A(ptr noundef %0, ptr noundef %1, ptr noundef %2, ptr noundef %3) #0 {
  %5 = alloca ptr, align 8
  %6 = alloca ptr, align 8
  %7 = alloca ptr, align 8
  %8 = alloca ptr, align 8
  %9 = alloca i32, align 4
  %10 = alloca i64, align 8
  %11 = alloca i64, align 8
  %12 = alloca [34 x i8], align 16
  %13 = alloca ptr, align 8
  store ptr %0, ptr %5, align 8, !tbaa !3
  store ptr %1, ptr %6, align 8, !tbaa !8
  store ptr %2, ptr %7, align 8, !tbaa !10
  store ptr %3, ptr %8, align 8, !tbaa !12
  call void @llvm.lifetime.start.p0(i64 4, ptr %9) #6
  store i32 0, ptr %9, align 4, !tbaa !14
  call void @llvm.lifetime.start.p0(i64 8, ptr %10) #6
  call void @llvm.lifetime.start.p0(i64 8, ptr %11) #6
  call void @llvm.lifetime.start.p0(i64 34, ptr %12) #6
  call void @llvm.lifetime.start.p0(i64 8, ptr %13) #6
  %14 = load ptr, ptr %8, align 8, !tbaa !12
  %15 = getelementptr inbounds nuw %struct.matrix_st, ptr %14, i32 0, i32 0
  %16 = load ptr, ptr %15, align 8, !tbaa !16
  store ptr %16, ptr %13, align 8, !tbaa !20
  %17 = getelementptr inbounds [34 x i8], ptr %12, i64 0, i64 0
  %18 = load ptr, ptr %7, align 8, !tbaa !10
  call void @llvm.memcpy.p0.p0.i64(ptr align 16 %17, ptr align 1 %18, i64 32, i1 false)
  store i64 0, ptr %10, align 8, !tbaa !21
  br label %19

19:                                               ; preds = %52, %4
  %20 = load i64, ptr %10, align 8, !tbaa !21
  %21 = load ptr, ptr %8, align 8, !tbaa !12
  %22 = getelementptr inbounds nuw %struct.matrix_st, ptr %21, i32 0, i32 1
  %23 = load i64, ptr %22, align 8, !tbaa !22
  %24 = icmp ult i64 %20, %23
  br i1 %24, label %25, label %55

25:                                               ; preds = %19
  store i64 0, ptr %11, align 8, !tbaa !21
  br label %26

26:                                               ; preds = %48, %25
  %27 = load i64, ptr %11, align 8, !tbaa !21
  %28 = load ptr, ptr %8, align 8, !tbaa !12
  %29 = getelementptr inbounds nuw %struct.matrix_st, ptr %28, i32 0, i32 2
  %30 = load i64, ptr %29, align 8, !tbaa !23
  %31 = icmp ult i64 %27, %30
  br i1 %31, label %32, label %51

32:                                               ; preds = %26
  %33 = load i64, ptr %10, align 8, !tbaa !21
  %34 = trunc i64 %33 to i8
  %35 = getelementptr inbounds [34 x i8], ptr %12, i64 0, i64 33
  store i8 %34, ptr %35, align 1, !tbaa !24
  %36 = load i64, ptr %11, align 8, !tbaa !21
  %37 = trunc i64 %36 to i8
  %38 = getelementptr inbounds [34 x i8], ptr %12, i64 0, i64 32
  store i8 %37, ptr %38, align 16, !tbaa !24
  %39 = load ptr, ptr %5, align 8, !tbaa !3
  %40 = load ptr, ptr %6, align 8, !tbaa !8
  %41 = getelementptr inbounds [34 x i8], ptr %12, i64 0, i64 0
  %42 = load ptr, ptr %13, align 8, !tbaa !20
  %43 = getelementptr inbounds nuw %struct.poly_st, ptr %42, i32 1
  store ptr %43, ptr %13, align 8, !tbaa !20
  %44 = call i32 @rej_ntt_poly(ptr noundef %39, ptr noundef %40, ptr noundef %41, i64 noundef 34, ptr noundef %42)
  %45 = icmp ne i32 %44, 0
  br i1 %45, label %47, label %46

46:                                               ; preds = %32
  br label %56

47:                                               ; preds = %32
  br label %48

48:                                               ; preds = %47
  %49 = load i64, ptr %11, align 8, !tbaa !21
  %50 = add i64 %49, 1
  store i64 %50, ptr %11, align 8, !tbaa !21
  br label %26, !llvm.loop !25

51:                                               ; preds = %26
  br label %52

52:                                               ; preds = %51
  %53 = load i64, ptr %10, align 8, !tbaa !21
  %54 = add i64 %53, 1
  store i64 %54, ptr %10, align 8, !tbaa !21
  br label %19, !llvm.loop !27

55:                                               ; preds = %19
  store i32 1, ptr %9, align 4, !tbaa !14
  br label %56

56:                                               ; preds = %55, %46
  %57 = load i32, ptr %9, align 4, !tbaa !14
  call void @llvm.lifetime.end.p0(i64 8, ptr %13) #6
  call void @llvm.lifetime.end.p0(i64 34, ptr %12) #6
  call void @llvm.lifetime.end.p0(i64 8, ptr %11) #6
  call void @llvm.lifetime.end.p0(i64 8, ptr %10) #6
  call void @llvm.lifetime.end.p0(i64 4, ptr %9) #6
  ret i32 %57
}