; Function Attrs: nounwind uwtable
define range(i32 0, 2) i32 @ossl_ml_dsa_matrix_expand_A(ptr noundef %0, ptr noundef %1, ptr noundef readonly captures(none) %2, ptr noundef readonly captures(none) %3) local_unnamed_addr #0 {
  %5 = alloca [168 x i8], align 16
  %6 = alloca [34 x i8], align 16
  call void @llvm.lifetime.start.p0(i64 34, ptr nonnull %6) #6
  %7 = load ptr, ptr %3, align 8, !tbaa !3
  call void @llvm.memcpy.p0.p0.i64(ptr noundef nonnull align 16 dereferenceable(32) %6, ptr noundef nonnull align 1 dereferenceable(32) %2, i64 32, i1 false)
  %8 = getelementptr inbounds nuw i8, ptr %3, i64 8
  %9 = load i64, ptr %8, align 8, !tbaa !10
  %.not = icmp eq i64 %9, 0
  br i1 %.not, label %.loopexit, label %.preheader.lr.ph

.preheader.lr.ph:                                 ; preds = %4
  %10 = getelementptr inbounds nuw i8, ptr %3, i64 16
  %11 = getelementptr inbounds nuw i8, ptr %6, i64 33
  %12 = getelementptr inbounds nuw i8, ptr %6, i64 32
  %13 = load i64, ptr %10, align 8, !tbaa !11
  %.not25 = icmp eq i64 %13, 0
  br i1 %.not25, label %.loopexit, label %.preheader

.preheader:                                       ; preds = %.preheader.lr.ph, %._crit_edge
  %14 = phi i64 [ %48, %._crit_edge ], [ %9, %.preheader.lr.ph ]
  %15 = phi i64 [ %49, %._crit_edge ], [ 1, %.preheader.lr.ph ]
  %.024 = phi ptr [ %.1.lcssa, %._crit_edge ], [ %7, %.preheader.lr.ph ]
  %.01423 = phi i64 [ %50, %._crit_edge ], [ 0, %.preheader.lr.ph ]
  %.not26 = icmp eq i64 %15, 0
  br i1 %.not26, label %._crit_edge, label %.lr.ph

.lr.ph:                                           ; preds = %.preheader
  %16 = trunc i64 %.01423 to i8
  br label %17

17:                                               ; preds = %.lr.ph, %43
  %.122 = phi ptr [ %.024, %.lr.ph ], [ %44, %43 ]
  %.01321 = phi i64 [ 0, %.lr.ph ], [ %45, %43 ]
  store i8 %16, ptr %11, align 1, !tbaa !12
  %18 = trunc i64 %.01321 to i8
  store i8 %18, ptr %12, align 16, !tbaa !12
  call void @llvm.lifetime.start.p0(i64 168, ptr nonnull %5) #6
  %19 = call i32 @EVP_DigestInit_ex2(ptr noundef %0, ptr noundef %1, ptr noundef null) #6
  %20 = icmp eq i32 %19, 1
  br i1 %20, label %21, label %rej_ntt_poly.exit.thread

21:                                               ; preds = %17
  %22 = call i32 @EVP_DigestUpdate(ptr noundef %0, ptr noundef nonnull %6, i64 noundef 34) #6
  %23 = icmp eq i32 %22, 1
  br i1 %23, label %shake_xof.exit.i, label %rej_ntt_poly.exit.thread

shake_xof.exit.i:                                 ; preds = %21
  %24 = call i32 @EVP_DigestSqueeze(ptr noundef %0, ptr noundef nonnull %5, i64 noundef 168) #6
  %.not.i = icmp eq i32 %24, 1
  br i1 %.not.i, label %.preheader.i, label %rej_ntt_poly.exit.thread

.preheader.i:                                     ; preds = %shake_xof.exit.i, %.preheader.i.backedge
  %.012.idx21.i = phi i64 [ %.012.idx21.i.be, %.preheader.i.backedge ], [ 0, %shake_xof.exit.i ]
  %.120.i = phi i32 [ %.2.i, %.preheader.i.backedge ], [ 0, %shake_xof.exit.i ]
  %.012.ptr.i = getelementptr inbounds nuw i8, ptr %5, i64 %.012.idx21.i
  %25 = sext i32 %.120.i to i64
  %26 = getelementptr inbounds [256 x i32], ptr %.122, i64 0, i64 %25
  %27 = load i16, ptr %.012.ptr.i, align 1
  %28 = zext i16 %27 to i32
  %29 = getelementptr inbounds nuw i8, ptr %.012.ptr.i, i64 2
  %30 = load i8, ptr %29, align 1, !tbaa !12
  %31 = and i8 %30, 127
  %32 = zext nneg i8 %31 to i32
  %33 = shl nuw nsw i32 %32, 16
  %34 = or disjoint i32 %33, %28
  store i32 %34, ptr %26, align 4, !tbaa !13
  %35 = icmp samesign ugt i32 %34, 8380416
  br i1 %35, label %39, label %36

36:                                               ; preds = %.preheader.i
  %37 = add nsw i32 %.120.i, 1
  %38 = icmp sgt i32 %.120.i, 254
  br i1 %38, label %43, label %39

39:                                               ; preds = %36, %.preheader.i
  %.2.i = phi i32 [ %37, %36 ], [ %.120.i, %.preheader.i ]
  %.012.add.i = add nuw nsw i64 %.012.idx21.i, 3
  %40 = icmp samesign ult i64 %.012.idx21.i, 165
  br i1 %40, label %.preheader.i.backedge, label %41

.preheader.i.backedge:                            ; preds = %39, %41
  %.012.idx21.i.be = phi i64 [ %.012.add.i, %39 ], [ 0, %41 ]
  br label %.preheader.i, !llvm.loop !15

41:                                               ; preds = %39
  %42 = call i32 @EVP_DigestSqueeze(ptr noundef %0, ptr noundef nonnull %5, i64 noundef 168) #6
  %.not15.i = icmp eq i32 %42, 0
  br i1 %.not15.i, label %rej_ntt_poly.exit.thread, label %.preheader.i.backedge

rej_ntt_poly.exit.thread:                         ; preds = %shake_xof.exit.i, %21, %17, %41
  call void @llvm.lifetime.end.p0(i64 168, ptr nonnull %5) #6
  br label %.loopexit

43:                                               ; preds = %36
  call void @llvm.lifetime.end.p0(i64 168, ptr nonnull %5) #6
  %44 = getelementptr inbounds nuw i8, ptr %.122, i64 1024
  %45 = add nuw i64 %.01321, 1
  %46 = load i64, ptr %10, align 8, !tbaa !11
  %47 = icmp ult i64 %45, %46
  br i1 %47, label %17, label %._crit_edge.loopexit, !llvm.loop !17

._crit_edge.loopexit:                             ; preds = %43
  %.pre = load i64, ptr %8, align 8, !tbaa !10
  br label %._crit_edge

._crit_edge:                                      ; preds = %._crit_edge.loopexit, %.preheader
  %48 = phi i64 [ %14, %.preheader ], [ %.pre, %._crit_edge.loopexit ]
  %49 = phi i64 [ 0, %.preheader ], [ %46, %._crit_edge.loopexit ]
  %.1.lcssa = phi ptr [ %.024, %.preheader ], [ %44, %._crit_edge.loopexit ]
  %50 = add nuw i64 %.01423, 1
  %51 = icmp ult i64 %50, %48
  br i1 %51, label %.preheader, label %.loopexit, !llvm.loop !18

.loopexit:                                        ; preds = %._crit_edge, %.preheader.lr.ph, %4, %rej_ntt_poly.exit.thread
  %.015 = phi i32 [ 0, %rej_ntt_poly.exit.thread ], [ 1, %4 ], [ 1, %.preheader.lr.ph ], [ 1, %._crit_edge ]
  call void @llvm.lifetime.end.p0(i64 34, ptr nonnull %6) #6
  ret i32 %.015
}